; ModuleID = 'source-C-CXX/54/1570.cpp'
source_filename = "source-C-CXX/54/1570.cpp"
target datalayout = "e-m:e-p270:32:32-p271:32:32-p272:64:64-i64:64-f80:128-n8:16:32:64-S128"
target triple = "x86_64-pc-linux-gnu"

%"class.std::ios_base::Init" = type { i8 }
%"class.std::basic_istream" = type { i32 (...)**, i64, %"class.std::basic_ios" }
%"class.std::basic_ios" = type { %"class.std::ios_base", %"class.std::basic_ostream"*, i8, i8, %"class.std::basic_streambuf"*, %"class.std::ctype"*, %"class.std::num_put"*, %"class.std::num_get"* }
%"class.std::ios_base" = type { i32 (...)**, i64, i64, i32, i32, i32, %"struct.std::ios_base::_Callback_list"*, %"struct.std::ios_base::_Words", [8 x %"struct.std::ios_base::_Words"], i32, %"struct.std::ios_base::_Words"*, %"class.std::locale" }
%"struct.std::ios_base::_Callback_list" = type { %"struct.std::ios_base::_Callback_list"*, void (i32, %"class.std::ios_base"*, i32)*, i32, i32 }
%"struct.std::ios_base::_Words" = type { i8*, i64 }
%"class.std::locale" = type { %"class.std::locale::_Impl"* }
%"class.std::locale::_Impl" = type { i32, %"class.std::locale::facet"**, i64, %"class.std::locale::facet"**, i8** }
%"class.std::locale::facet" = type <{ i32 (...)**, i32, [4 x i8] }>
%"class.std::basic_ostream" = type { i32 (...)**, %"class.std::basic_ios" }
%"class.std::basic_streambuf" = type { i32 (...)**, i8*, i8*, i8*, i8*, i8*, i8*, %"class.std::locale" }
%"class.std::ctype" = type <{ %"class.std::locale::facet.base", [4 x i8], %struct.__locale_struct*, i8, [7 x i8], i32*, i32*, i16*, i8, [256 x i8], [256 x i8], i8, [6 x i8] }>
%"class.std::locale::facet.base" = type <{ i32 (...)**, i32 }>
%struct.__locale_struct = type { [13 x %struct.__locale_data*], i16*, i32*, i32*, [13 x i8*] }
%struct.__locale_data = type opaque
%"class.std::num_put" = type { %"class.std::locale::facet.base", [4 x i8] }
%"class.std::num_get" = type { %"class.std::locale::facet.base", [4 x i8] }

@_ZStL8__ioinit = internal global %"class.std::ios_base::Init" zeroinitializer, align 1
@__dso_handle = external hidden global i8
@_ZSt3cin = external global %"class.std::basic_istream", align 8
@_ZSt4cout = external global %"class.std::basic_ostream", align 8
@llvm.global_ctors = appending global [1 x { i32, void ()*, i8* }] [{ i32, void ()*, i8* } { i32 65535, void ()* @_GLOBAL__sub_I_1570.cpp, i8* null }]

declare void @_ZNSt8ios_base4InitC1Ev(%"class.std::ios_base::Init"* nonnull align 1 dereferenceable(1)) unnamed_addr #0

; Function Attrs: nounwind
declare void @_ZNSt8ios_base4InitD1Ev(%"class.std::ios_base::Init"* nonnull align 1 dereferenceable(1)) unnamed_addr #1

; Function Attrs: nofree nounwind
declare i32 @__cxa_atexit(void (i8*)*, i8*, i8*) local_unnamed_addr #2

; Function Attrs: mustprogress norecurse sspstrong uwtable
define dso_local i32 @main() local_unnamed_addr #3 {
  %1 = alloca i8, align 1
  %2 = alloca i32, align 4
  %3 = alloca i32, align 4
  %4 = alloca [100 x i8], align 16
  %5 = alloca [100 x i8], align 16
  %6 = bitcast i32* %2 to i8*
  call void @llvm.lifetime.start.p0i8(i64 4, i8* nonnull %6) #7
  %7 = bitcast i32* %3 to i8*
  call void @llvm.lifetime.start.p0i8(i64 4, i8* nonnull %7) #7
  %8 = getelementptr inbounds [100 x i8], [100 x i8]* %4, i64 0, i64 0
  call void @llvm.lifetime.start.p0i8(i64 100, i8* nonnull %8) #7
  %9 = getelementptr inbounds [100 x i8], [100 x i8]* %5, i64 0, i64 0
  call void @llvm.lifetime.start.p0i8(i64 100, i8* nonnull %9) #7
  %10 = call nonnull align 8 dereferenceable(16) %"class.std::basic_istream"* @_ZNSirsERi(%"class.std::basic_istream"* nonnull align 8 dereferenceable(16) @_ZSt3cin, i32* nonnull align 4 dereferenceable(4) %2)
  call void @_ZSt17__istream_extractRSiPcl(%"class.std::basic_istream"* nonnull align 8 dereferenceable(16) %10, i8* nonnull %8, i64 100)
  %11 = call nonnull align 8 dereferenceable(16) %"class.std::basic_istream"* @_ZNSirsERi(%"class.std::basic_istream"* nonnull align 8 dereferenceable(16) %10, i32* nonnull align 4 dereferenceable(4) %3)
  %12 = load i8, i8* %8, align 16, !tbaa !5
  %13 = icmp eq i8 %12, 48
  br i1 %13, label %14, label %17

14:                                               ; preds = %0
  %15 = call nonnull align 8 dereferenceable(8) %"class.std::basic_ostream"* @_ZNSolsEi(%"class.std::basic_ostream"* nonnull align 8 dereferenceable(8) @_ZSt4cout, i32 0)
  %16 = load i8, i8* %8, align 16
  br label %17

17:                                               ; preds = %14, %0
  %18 = phi i8 [ %16, %14 ], [ %12, %0 ]
  %19 = load i32, i32* %2, align 4
  %20 = icmp eq i8 %18, 0
  br i1 %20, label %68, label %24

21:                                               ; preds = %43
  %22 = load i32, i32* %3, align 4
  %23 = icmp sgt i32 %47, 0
  br i1 %23, label %54, label %68

24:                                               ; preds = %17, %51
  %25 = phi i8 [ %53, %51 ], [ %18, %17 ]
  %26 = phi i64 [ %48, %51 ], [ 0, %17 ]
  %27 = phi i32 [ %47, %51 ], [ 0, %17 ]
  %28 = getelementptr inbounds [100 x i8], [100 x i8]* %4, i64 0, i64 %26
  %29 = add i8 %25, -97
  %30 = icmp ult i8 %29, 26
  br i1 %30, label %31, label %33

31:                                               ; preds = %24
  %32 = add nsw i8 %25, -87
  br label %41

33:                                               ; preds = %24
  %34 = add i8 %25, -65
  %35 = icmp ult i8 %34, 26
  br i1 %35, label %36, label %38

36:                                               ; preds = %33
  %37 = add nsw i8 %25, -55
  br label %41

38:                                               ; preds = %33
  %39 = add i8 %25, -48
  %40 = icmp ult i8 %39, 10
  br i1 %40, label %41, label %43

41:                                               ; preds = %38, %31, %36
  %42 = phi i8 [ %37, %36 ], [ %32, %31 ], [ %39, %38 ]
  store i8 %42, i8* %28, align 1, !tbaa !5
  br label %43

43:                                               ; preds = %41, %38
  %44 = phi i8 [ %25, %38 ], [ %42, %41 ]
  %45 = mul nsw i32 %19, %27
  %46 = sext i8 %44 to i32
  %47 = add nsw i32 %45, %46
  %48 = add nuw nsw i64 %26, 1
  %49 = call i64 @strlen(i8* noundef nonnull %8) #8
  %50 = icmp ugt i64 %49, %48
  br i1 %50, label %51, label %21, !llvm.loop !8

51:                                               ; preds = %43
  %52 = getelementptr inbounds [100 x i8], [100 x i8]* %4, i64 0, i64 %48
  %53 = load i8, i8* %52, align 1, !tbaa !5
  br label %24

54:                                               ; preds = %21, %54
  %55 = phi i64 [ %64, %54 ], [ 0, %21 ]
  %56 = phi i32 [ %60, %54 ], [ %47, %21 ]
  %57 = srem i32 %56, %22
  %58 = trunc i32 %57 to i8
  %59 = getelementptr inbounds [100 x i8], [100 x i8]* %5, i64 0, i64 %55
  %60 = sdiv i32 %56, %22
  %61 = icmp slt i8 %58, 10
  %62 = select i1 %61, i8 48, i8 55
  %63 = add i8 %62, %58
  store i8 %63, i8* %59, align 1, !tbaa !5
  %64 = add nuw i64 %55, 1
  %65 = icmp sgt i32 %60, 0
  br i1 %65, label %54, label %66, !llvm.loop !10

66:                                               ; preds = %54
  %67 = and i64 %64, 4294967295
  br label %68

68:                                               ; preds = %17, %66, %21
  %69 = phi i64 [ 0, %21 ], [ %67, %66 ], [ 0, %17 ]
  %70 = getelementptr inbounds [100 x i8], [100 x i8]* %5, i64 0, i64 %69
  store i8 0, i8* %70, align 1, !tbaa !5
  %71 = call i64 @strlen(i8* noundef nonnull %9) #8
  %72 = trunc i64 %71 to i32
  %73 = add i32 %72, -1
  %74 = icmp sgt i32 %73, -1
  br i1 %74, label %76, label %75

75:                                               ; preds = %76, %68
  call void @llvm.lifetime.end.p0i8(i64 100, i8* nonnull %9) #7
  call void @llvm.lifetime.end.p0i8(i64 100, i8* nonnull %8) #7
  call void @llvm.lifetime.end.p0i8(i64 4, i8* nonnull %7) #7
  call void @llvm.lifetime.end.p0i8(i64 4, i8* nonnull %6) #7
  ret i32 0

76:                                               ; preds = %68, %76
  %77 = phi i32 [ %82, %76 ], [ %73, %68 ]
  %78 = zext i32 %77 to i64
  %79 = getelementptr inbounds [100 x i8], [100 x i8]* %5, i64 0, i64 %78
  %80 = load i8, i8* %79, align 1, !tbaa !5
  call void @llvm.lifetime.start.p0i8(i64 1, i8* nonnull %1)
  store i8 %80, i8* %1, align 1, !tbaa !5
  %81 = call nonnull align 8 dereferenceable(8) %"class.std::basic_ostream"* @_ZSt16__ostream_insertIcSt11char_traitsIcEERSt13basic_ostreamIT_T0_ES6_PKS3_l(%"class.std::basic_ostream"* nonnull align 8 dereferenceable(8) @_ZSt4cout, i8* nonnull %1, i64 1)
  call void @llvm.lifetime.end.p0i8(i64 1, i8* nonnull %1)
  %82 = add nsw i32 %77, -1
  %83 = icmp sgt i32 %77, 0
  br i1 %83, label %76, label %75, !llvm.loop !11
}

; Function Attrs: argmemonly mustprogress nofree nosync nounwind willreturn
declare void @llvm.lifetime.start.p0i8(i64 immarg, i8* nocapture) #4

declare nonnull align 8 dereferenceable(16) %"class.std::basic_istream"* @_ZNSirsERi(%"class.std::basic_istream"* nonnull align 8 dereferenceable(16), i32* nonnull align 4 dereferenceable(4)) local_unnamed_addr #0

declare nonnull align 8 dereferenceable(8) %"class.std::basic_ostream"* @_ZNSolsEi(%"class.std::basic_ostream"* nonnull align 8 dereferenceable(8), i32) local_unnamed_addr #0

; Function Attrs: argmemonly mustprogress nofree nounwind readonly willreturn
declare i64 @strlen(i8* nocapture) local_unnamed_addr #5

; Function Attrs: argmemonly mustprogress nofree nosync nounwind willreturn
declare void @llvm.lifetime.end.p0i8(i64 immarg, i8* nocapture) #4

declare void @_ZSt17__istream_extractRSiPcl(%"class.std::basic_istream"* nonnull align 8 dereferenceable(16), i8*, i64) local_unnamed_addr #0

declare nonnull align 8 dereferenceable(8) %"class.std::basic_ostream"* @_ZSt16__ostream_insertIcSt11char_traitsIcEERSt13basic_ostreamIT_T0_ES6_PKS3_l(%"class.std::basic_ostream"* nonnull align 8 dereferenceable(8), i8*, i64) local_unnamed_addr #0

; Function Attrs: sspstrong uwtable
define internal void @_GLOBAL__sub_I_1570.cpp() #6 section ".text.startup" {
  tail call void @_ZNSt8ios_base4InitC1Ev(%"class.std::ios_base::Init"* nonnull align 1 dereferenceable(1) @_ZStL8__ioinit)
  %1 = tail call i32 @__cxa_atexit(void (i8*)* bitcast (void (%"class.std::ios_base::Init"*)* @_ZNSt8ios_base4InitD1Ev to void (i8*)*), i8* getelementptr inbounds (%"class.std::ios_base::Init", %"class.std::ios_base::Init"* @_ZStL8__ioinit, i64 0, i32 0), i8* nonnull @__dso_handle) #7
  ret void
}


!llvm.module.flags = !{!0, !1, !2, !3}
!llvm.ident = !{!4}

!0 = !{i32 1, !"wchar_size", i32 4}
!1 = !{i32 7, !"PIC Level", i32 2}
!2 = !{i32 7, !"PIE Level", i32 2}
!3 = !{i32 7, !"uwtable", i32 1}
!4 = !{!"clang version 13.0.0"}
!5 = !{!6, !6, i64 0}
!6 = !{!"omnipotent char", !7, i64 0}
!7 = !{!"Simple C++ TBAA"}
!8 = distinct !{!8, !9}
!9 = !{!"llvm.loop.mustprogress"}
!10 = distinct !{!10, !9}
!11 = distinct !{!11, !9}
